; Function Attrs: nounwind uwtable
define ptr @glfwGetWaylandWindow(ptr noundef readonly captures(none) %0) local_unnamed_addr #0 {
  %2 = load i32, ptr @_glfw, align 8, !tbaa !354
  %.not = icmp eq i32 %2, 0
  br i1 %.not, label %3, label %4

3:                                                ; preds = %1
  tail call void (i32, ptr, ...) @_glfwInputError(i32 noundef 65537, ptr noundef null) #20
  br label %10

4:                                                ; preds = %1
  %5 = load i32, ptr getelementptr inbounds nuw (i8, ptr @_glfw, i64 40), align 8, !tbaa !355
  %.not3 = icmp eq i32 %5, 393219
  br i1 %.not3, label %7, label %6

6:                                                ; preds = %4
  tail call void (i32, ptr, ...) @_glfwInputError(i32 noundef 65550, ptr noundef nonnull @.str.40) #20
  br label %10

7:                                                ; preds = %4
  %8 = getelementptr inbounds nuw i8, ptr %0, i64 904
  %9 = load ptr, ptr %8, align 8, !tbaa !135
  br label %10

10:                                               ; preds = %7, %6, %3
  %.0 = phi ptr [ null, %6 ], [ %9, %7 ], [ null, %3 ]
  ret ptr %.0
}